; Function Attrs: mustprogress uwtable
define internal void @_ZNK6google8protobuf8compiler3cpp12_GLOBAL__N_114SingularString36GenerateNonInlineAccessorDefinitionsEPNS0_2io7PrinterE(ptr nocapture noundef nonnull readonly align 8 dereferenceable(104) %this, ptr noundef %p) unnamed_addr #3 align 2 personality ptr @__gxx_personality_v0 {
entry:
  %0 = getelementptr inbounds i8, ptr %this, i64 88
  %this.val = load ptr, ptr %0, align 8
  %1 = getelementptr i8, ptr %this.val, i64 80
  %this.val.val = load ptr, ptr %1, align 8
  %call2.i = tail call noundef zeroext i1 @_ZNKSt7__cxx1112basic_stringIcSt11char_traitsIcESaIcEE5emptyEv(ptr noundef nonnull align 8 dereferenceable(32) %this.val.val) #27
  br i1 %call2.i, label %return, label %if.end

if.end:                                           ; preds = %entry
  tail call void @_ZN6google8protobuf2io7Printer4EmitEN4absl12lts_202308024SpanIKNS2_3SubEEESt17basic_string_viewIcSt11char_traitsIcEENS2_14SourceLocationE(ptr noundef nonnull align 8 dereferenceable(256) %p, ptr null, i64 0, i64 151, ptr nonnull @.str.79)
  br label %return

return:                                           ; preds = %entry, %if.end
  ret void
}